; Function Attrs: mustprogress uwtable
define hidden void @_ZN6google8protobuf2io26CopyingOutputStreamAdaptor22AllocateBufferIfNeededEv(ptr noundef nonnull align 8 captures(none) dereferenceable(48) %0) local_unnamed_addr #6 align 2 {
  %2 = getelementptr inbounds nuw i8, ptr %0, i64 32
  %3 = load ptr, ptr %2, align 8, !tbaa !53
  %.not.i = icmp eq ptr %3, null
  br i1 %.not.i, label %_ZNSt10unique_ptrIA_hSt14default_deleteIS0_EE5resetIPhvEEvT_.exit, label %8

_ZNSt10unique_ptrIA_hSt14default_deleteIS0_EE5resetIPhvEEvT_.exit: ; preds = %1
  %4 = getelementptr inbounds nuw i8, ptr %0, i64 40
  %5 = load i32, ptr %4, align 8, !tbaa !60
  %narrow = tail call i32 @llvm.smax.i32(i32 %5, i32 -1)
  %6 = sext i32 %narrow to i64
  %7 = tail call noalias noundef nonnull ptr @_Znam(i64 noundef %6) #21
  store ptr %7, ptr %2, align 8, !tbaa !53
  br label %8

8:                                                ; preds = %_ZNSt10unique_ptrIA_hSt14default_deleteIS0_EE5resetIPhvEEvT_.exit, %1
  ret void
}